target datalayout = "e-m:e-p270:32:32-p271:32:32-p272:64:64-i64:64-i128:128-f80:128-n8:16:32:64-S128"
target triple = "x86_64-pc-linux-gnu"

%struct.If_Grp_t_ = type { i8, i8, [16 x i8] }

@.str.15 = private unnamed_addr constant [27 x i8] c"Group check 0 has failed.\0A\00", align 1
@.str.16 = private unnamed_addr constant [27 x i8] c"Group check 1 has failed.\0A\00", align 1
@.str.17 = private unnamed_addr constant [27 x i8] c"Group check 2 has failed.\0A\00", align 1

; Function Attrs: inlinehint nounwind uwtable
define internal i32 @If_CluWordNum(i32 noundef %0) #3 {
  %2 = alloca i32, align 4
  store i32 %0, ptr %2, align 4, !tbaa !3
  %3 = load i32, ptr %2, align 4, !tbaa !3
  %4 = icmp sle i32 %3, 6
  br i1 %4, label %5, label %6

5:                                                ; preds = %1
  br label %10

6:                                                ; preds = %1
  %7 = load i32, ptr %2, align 4, !tbaa !3
  %8 = sub nsw i32 %7, 6
  %9 = shl i32 1, %8
  br label %10

10:                                               ; preds = %6, %5
  %11 = phi i32 [ 1, %5 ], [ %9, %6 ]
  ret i32 %11
}

; Function Attrs: nounwind uwtable
define void @If_CluMoveGroupToMsb(ptr noundef %0, i32 noundef %1, ptr noundef %2, ptr noundef %3, ptr noundef %4) #0 {
  %6 = alloca ptr, align 8
  %7 = alloca i32, align 4
  %8 = alloca ptr, align 8
  %9 = alloca ptr, align 8
  %10 = alloca ptr, align 8
  %11 = alloca i32, align 4
  store ptr %0, ptr %6, align 8, !tbaa !51
  store i32 %1, ptr %7, align 4, !tbaa !3
  store ptr %2, ptr %8, align 8, !tbaa !21
  store ptr %3, ptr %9, align 8, !tbaa !21
  store ptr %4, ptr %10, align 8, !tbaa !106
  call void @llvm.lifetime.start.p0(i64 4, ptr %11) #11
  store i32 0, ptr %11, align 4, !tbaa !3
  br label %12

12:                                               ; preds = %41, %5
  %13 = load i32, ptr %11, align 4, !tbaa !3
  %14 = load ptr, ptr %10, align 8, !tbaa !106
  %15 = getelementptr inbounds nuw %struct.If_Grp_t_, ptr %14, i32 0, i32 0
  %16 = load i8, ptr %15, align 1, !tbaa !49
  %17 = sext i8 %16 to i32
  %18 = icmp slt i32 %13, %17
  br i1 %18, label %19, label %44

19:                                               ; preds = %12
  %20 = load ptr, ptr %6, align 8, !tbaa !51
  %21 = load i32, ptr %7, align 4, !tbaa !3
  %22 = load ptr, ptr %8, align 8, !tbaa !21
  %23 = load ptr, ptr %9, align 8, !tbaa !21
  %24 = load ptr, ptr %10, align 8, !tbaa !106
  %25 = getelementptr inbounds nuw %struct.If_Grp_t_, ptr %24, i32 0, i32 2
  %26 = load ptr, ptr %10, align 8, !tbaa !106
  %27 = getelementptr inbounds nuw %struct.If_Grp_t_, ptr %26, i32 0, i32 0
  %28 = load i8, ptr %27, align 1, !tbaa !49
  %29 = sext i8 %28 to i32
  %30 = sub nsw i32 %29, 1
  %31 = load i32, ptr %11, align 4, !tbaa !3
  %32 = sub nsw i32 %30, %31
  %33 = sext i32 %32 to i64
  %34 = getelementptr inbounds [16 x i8], ptr %25, i64 0, i64 %33
  %35 = load i8, ptr %34, align 1, !tbaa !46
  %36 = sext i8 %35 to i32
  %37 = load i32, ptr %7, align 4, !tbaa !3
  %38 = sub nsw i32 %37, 1
  %39 = load i32, ptr %11, align 4, !tbaa !3
  %40 = sub nsw i32 %38, %39
  call void @If_CluMoveVar(ptr noundef %20, i32 noundef %21, ptr noundef %22, ptr noundef %23, i32 noundef %36, i32 noundef %40)
  br label %41

41:                                               ; preds = %19
  %42 = load i32, ptr %11, align 4, !tbaa !3
  %43 = add nsw i32 %42, 1
  store i32 %43, ptr %11, align 4, !tbaa !3
  br label %12, !llvm.loop !130

44:                                               ; preds = %12
  call void @llvm.lifetime.end.p0(i64 4, ptr %11) #11
  ret void
}

; Function Attrs: inlinehint nounwind uwtable
define internal void @If_CluCopy(ptr noundef %0, ptr noundef %1, i32 noundef %2) #3 {
  %4 = alloca ptr, align 8
  %5 = alloca ptr, align 8
  %6 = alloca i32, align 4
  %7 = alloca i32, align 4
  %8 = alloca i32, align 4
  store ptr %0, ptr %4, align 8, !tbaa !51
  store ptr %1, ptr %5, align 8, !tbaa !51
  store i32 %2, ptr %6, align 4, !tbaa !3
  call void @llvm.lifetime.start.p0(i64 4, ptr %7) #11
  call void @llvm.lifetime.start.p0(i64 4, ptr %8) #11
  %9 = load i32, ptr %6, align 4, !tbaa !3
  %10 = call i32 @If_CluWordNum(i32 noundef %9)
  store i32 %10, ptr %8, align 4, !tbaa !3
  store i32 0, ptr %7, align 4, !tbaa !3
  br label %11

11:                                               ; preds = %25, %3
  %12 = load i32, ptr %7, align 4, !tbaa !3
  %13 = load i32, ptr %8, align 4, !tbaa !3
  %14 = icmp slt i32 %12, %13
  br i1 %14, label %15, label %28

15:                                               ; preds = %11
  %16 = load ptr, ptr %5, align 8, !tbaa !51
  %17 = load i32, ptr %7, align 4, !tbaa !3
  %18 = sext i32 %17 to i64
  %19 = getelementptr inbounds i64, ptr %16, i64 %18
  %20 = load i64, ptr %19, align 8, !tbaa !79
  %21 = load ptr, ptr %4, align 8, !tbaa !51
  %22 = load i32, ptr %7, align 4, !tbaa !3
  %23 = sext i32 %22 to i64
  %24 = getelementptr inbounds i64, ptr %21, i64 %23
  store i64 %20, ptr %24, align 8, !tbaa !79
  br label %25

25:                                               ; preds = %15
  %26 = load i32, ptr %7, align 4, !tbaa !3
  %27 = add nsw i32 %26, 1
  store i32 %27, ptr %7, align 4, !tbaa !3
  br label %11, !llvm.loop !101

28:                                               ; preds = %11
  call void @llvm.lifetime.end.p0(i64 4, ptr %8) #11
  call void @llvm.lifetime.end.p0(i64 4, ptr %7) #11
  ret void
}

; Function Attrs: nounwind uwtable
define void @If_CluCheckGroup(ptr noundef %0, i32 noundef %1, ptr noundef %2) #0 {
  %4 = alloca ptr, align 8
  %5 = alloca i32, align 4
  %6 = alloca ptr, align 8
  %7 = alloca [1024 x i64], align 16
  %8 = alloca i32, align 4
  %9 = alloca i32, align 4
  %10 = alloca [16 x i32], align 16
  %11 = alloca [16 x i32], align 16
  store ptr %0, ptr %4, align 8, !tbaa !51
  store i32 %1, ptr %5, align 4, !tbaa !3
  store ptr %2, ptr %6, align 8, !tbaa !106
  call void @llvm.lifetime.start.p0(i64 8192, ptr %7) #11
  call void @llvm.lifetime.start.p0(i64 4, ptr %8) #11
  call void @llvm.lifetime.start.p0(i64 4, ptr %9) #11
  call void @llvm.lifetime.start.p0(i64 64, ptr %10) #11
  call void @llvm.lifetime.start.p0(i64 64, ptr %11) #11
  store i32 0, ptr %8, align 4, !tbaa !3
  br label %12

12:                                               ; preds = %24, %3
  %13 = load i32, ptr %8, align 4, !tbaa !3
  %14 = load i32, ptr %5, align 4, !tbaa !3
  %15 = icmp slt i32 %13, %14
  br i1 %15, label %16, label %27

16:                                               ; preds = %12
  %17 = load i32, ptr %8, align 4, !tbaa !3
  %18 = load i32, ptr %8, align 4, !tbaa !3
  %19 = sext i32 %18 to i64
  %20 = getelementptr inbounds [16 x i32], ptr %11, i64 0, i64 %19
  store i32 %17, ptr %20, align 4, !tbaa !3
  %21 = load i32, ptr %8, align 4, !tbaa !3
  %22 = sext i32 %21 to i64
  %23 = getelementptr inbounds [16 x i32], ptr %10, i64 0, i64 %22
  store i32 %17, ptr %23, align 4, !tbaa !3
  br label %24

24:                                               ; preds = %16
  %25 = load i32, ptr %8, align 4, !tbaa !3
  %26 = add nsw i32 %25, 1
  store i32 %26, ptr %8, align 4, !tbaa !3
  br label %12, !llvm.loop !163

27:                                               ; preds = %12
  %28 = getelementptr inbounds [1024 x i64], ptr %7, i64 0, i64 0
  %29 = load ptr, ptr %4, align 8, !tbaa !51
  %30 = load i32, ptr %5, align 4, !tbaa !3
  call void @If_CluCopy(ptr noundef %28, ptr noundef %29, i32 noundef %30)
  %31 = getelementptr inbounds [1024 x i64], ptr %7, i64 0, i64 0
  %32 = load i32, ptr %5, align 4, !tbaa !3
  %33 = getelementptr inbounds [16 x i32], ptr %10, i64 0, i64 0
  %34 = getelementptr inbounds [16 x i32], ptr %11, i64 0, i64 0
  %35 = load ptr, ptr %6, align 8, !tbaa !106
  call void @If_CluMoveGroupToMsb(ptr noundef %31, i32 noundef %32, ptr noundef %33, ptr noundef %34, ptr noundef %35)
  %36 = getelementptr inbounds [1024 x i64], ptr %7, i64 0, i64 0
  %37 = load i32, ptr %5, align 4, !tbaa !3
  %38 = load ptr, ptr %6, align 8, !tbaa !106
  %39 = getelementptr inbounds nuw %struct.If_Grp_t_, ptr %38, i32 0, i32 0
  %40 = load i8, ptr %39, align 1, !tbaa !49
  %41 = sext i8 %40 to i32
  %42 = call i32 @If_CluCountCofs(ptr noundef %36, i32 noundef %37, i32 noundef %41, i32 noundef 0, ptr noundef null)
  store i32 %42, ptr %9, align 4, !tbaa !3
  %43 = load i32, ptr %9, align 4, !tbaa !3
  %44 = load ptr, ptr %6, align 8, !tbaa !106
  %45 = getelementptr inbounds nuw %struct.If_Grp_t_, ptr %44, i32 0, i32 1
  %46 = load i8, ptr %45, align 1, !tbaa !108
  %47 = sext i8 %46 to i32
  %48 = icmp ne i32 %43, %47
  br i1 %48, label %49, label %51

49:                                               ; preds = %27
  %50 = call i32 (ptr, ...) @printf(ptr noundef @.str.15)
  br label %51

51:                                               ; preds = %49, %27
  %52 = load i32, ptr %9, align 4, !tbaa !3
  %53 = icmp sgt i32 %52, 2
  br i1 %53, label %54, label %86

54:                                               ; preds = %51
  %55 = getelementptr inbounds [1024 x i64], ptr %7, i64 0, i64 0
  %56 = load i32, ptr %5, align 4, !tbaa !3
  %57 = sub nsw i32 %56, 1
  %58 = load ptr, ptr %6, align 8, !tbaa !106
  %59 = getelementptr inbounds nuw %struct.If_Grp_t_, ptr %58, i32 0, i32 0
  %60 = load i8, ptr %59, align 1, !tbaa !49
  %61 = sext i8 %60 to i32
  %62 = sub nsw i32 %61, 1
  %63 = call i32 @If_CluCountCofs(ptr noundef %55, i32 noundef %57, i32 noundef %62, i32 noundef 0, ptr noundef null)
  store i32 %63, ptr %9, align 4, !tbaa !3
  %64 = load i32, ptr %9, align 4, !tbaa !3
  %65 = icmp sgt i32 %64, 2
  br i1 %65, label %66, label %68

66:                                               ; preds = %54
  %67 = call i32 (ptr, ...) @printf(ptr noundef @.str.16)
  br label %68

68:                                               ; preds = %66, %54
  %69 = getelementptr inbounds [1024 x i64], ptr %7, i64 0, i64 0
  %70 = load i32, ptr %5, align 4, !tbaa !3
  %71 = sub nsw i32 %70, 1
  %72 = load ptr, ptr %6, align 8, !tbaa !106
  %73 = getelementptr inbounds nuw %struct.If_Grp_t_, ptr %72, i32 0, i32 0
  %74 = load i8, ptr %73, align 1, !tbaa !49
  %75 = sext i8 %74 to i32
  %76 = sub nsw i32 %75, 1
  %77 = load i32, ptr %5, align 4, !tbaa !3
  %78 = sub nsw i32 %77, 1
  %79 = shl i32 1, %78
  %80 = call i32 @If_CluCountCofs(ptr noundef %69, i32 noundef %71, i32 noundef %76, i32 noundef %79, ptr noundef null)
  store i32 %80, ptr %9, align 4, !tbaa !3
  %81 = load i32, ptr %9, align 4, !tbaa !3
  %82 = icmp sgt i32 %81, 2
  br i1 %82, label %83, label %85

83:                                               ; preds = %68
  %84 = call i32 (ptr, ...) @printf(ptr noundef @.str.17)
  br label %85

85:                                               ; preds = %83, %68
  br label %86

86:                                               ; preds = %85, %51
  call void @llvm.lifetime.end.p0(i64 64, ptr %11) #11
  call void @llvm.lifetime.end.p0(i64 64, ptr %10) #11
  call void @llvm.lifetime.end.p0(i64 4, ptr %9) #11
  call void @llvm.lifetime.end.p0(i64 4, ptr %8) #11
  call void @llvm.lifetime.end.p0(i64 8192, ptr %7) #11
  ret void
}