; Function Attrs: nofree nounwind uwtable
define void @If_CluCheckGroup(ptr noundef readonly captures(none) %0, i32 noundef %1, ptr noundef readonly captures(none) %2) local_unnamed_addr #6 {
  %4 = alloca [1024 x i64], align 16
  %5 = alloca [16 x i32], align 16
  %6 = alloca [16 x i32], align 16
  call void @llvm.lifetime.start.p0(i64 8192, ptr nonnull %4) #22
  call void @llvm.lifetime.start.p0(i64 64, ptr nonnull %5) #22
  call void @llvm.lifetime.start.p0(i64 64, ptr nonnull %6) #22
  %7 = icmp sgt i32 %1, 0
  br i1 %7, label %.lr.ph.preheader, label %.lr.ph.preheader.i

.lr.ph.preheader:                                 ; preds = %3
  %wide.trip.count = zext nneg i32 %1 to i64
  br label %.lr.ph

.lr.ph:                                           ; preds = %.lr.ph.preheader, %.lr.ph
  %indvars.iv = phi i64 [ 0, %.lr.ph.preheader ], [ %indvars.iv.next, %.lr.ph ]
  %8 = getelementptr inbounds nuw [16 x i32], ptr %6, i64 0, i64 %indvars.iv
  %9 = trunc nuw nsw i64 %indvars.iv to i32
  store i32 %9, ptr %8, align 4, !tbaa !6
  %10 = getelementptr inbounds nuw [16 x i32], ptr %5, i64 0, i64 %indvars.iv
  store i32 %9, ptr %10, align 4, !tbaa !6
  %indvars.iv.next = add nuw nsw i64 %indvars.iv, 1
  %exitcond.not = icmp eq i64 %indvars.iv.next, %wide.trip.count
  br i1 %exitcond.not, label %._crit_edge, label %.lr.ph, !llvm.loop !171

._crit_edge:                                      ; preds = %.lr.ph
  %11 = icmp slt i32 %1, 7
  %12 = add nsw i32 %1, -6
  %13 = shl nuw i32 1, %12
  %14 = select i1 %11, i32 1, i32 %13
  %15 = icmp sgt i32 %14, 0
  br i1 %15, label %.lr.ph.preheader.i, label %If_CluCopy.exit

.lr.ph.preheader.i:                               ; preds = %3, %._crit_edge
  %16 = phi i32 [ %14, %._crit_edge ], [ 1, %3 ]
  %wide.trip.count.i = zext nneg i32 %16 to i64
  %17 = shl nuw nsw i64 %wide.trip.count.i, 3
  call void @llvm.memcpy.p0.p0.i64(ptr noundef nonnull align 16 dereferenceable(1) %4, ptr noundef nonnull align 8 dereferenceable(1) %0, i64 %17, i1 false), !tbaa !16
  br label %If_CluCopy.exit

If_CluCopy.exit:                                  ; preds = %.lr.ph.preheader.i, %._crit_edge
  %18 = load i8, ptr %2, align 1, !tbaa !110
  %19 = icmp sgt i8 %18, 0
  br i1 %19, label %.lr.ph.i24, label %If_CluCopy.exit.If_CluMoveGroupToMsb.exit_crit_edge

If_CluCopy.exit.If_CluMoveGroupToMsb.exit_crit_edge: ; preds = %If_CluCopy.exit
  %.pre30 = sext i8 %18 to i32
  br label %If_CluMoveGroupToMsb.exit

.lr.ph.i24:                                       ; preds = %If_CluCopy.exit
  %20 = zext nneg i8 %18 to i32
  %21 = getelementptr inbounds nuw i8, ptr %2, i64 2
  br label %22

22:                                               ; preds = %22, %.lr.ph.i24
  %23 = phi i32 [ %20, %.lr.ph.i24 ], [ %33, %22 ]
  %.012.i = phi i32 [ 0, %.lr.ph.i24 ], [ %31, %22 ]
  %24 = xor i32 %.012.i, -1
  %25 = add i32 %23, %24
  %26 = sext i32 %25 to i64
  %27 = getelementptr inbounds [16 x i8], ptr %21, i64 0, i64 %26
  %28 = load i8, ptr %27, align 1, !tbaa !59
  %29 = sext i8 %28 to i32
  %30 = add i32 %1, %24
  call void @If_CluMoveVar(ptr noundef nonnull %4, i32 noundef %1, ptr noundef nonnull %5, ptr noundef nonnull %6, i32 noundef %29, i32 noundef %30)
  %31 = add nuw nsw i32 %.012.i, 1
  %32 = load i8, ptr %2, align 1, !tbaa !110
  %33 = sext i8 %32 to i32
  %34 = icmp slt i32 %31, %33
  br i1 %34, label %22, label %If_CluMoveGroupToMsb.exit, !llvm.loop !138

If_CluMoveGroupToMsb.exit:                        ; preds = %22, %If_CluCopy.exit.If_CluMoveGroupToMsb.exit_crit_edge
  %.pre-phi31 = phi i32 [ %.pre30, %If_CluCopy.exit.If_CluMoveGroupToMsb.exit_crit_edge ], [ %33, %22 ]
  %35 = call i32 @If_CluCountCofs(ptr noundef nonnull %4, i32 noundef %1, i32 noundef %.pre-phi31, i32 noundef 0, ptr noundef null)
  %36 = getelementptr inbounds nuw i8, ptr %2, i64 1
  %37 = load i8, ptr %36, align 1, !tbaa !112
  %38 = sext i8 %37 to i32
  %.not = icmp eq i32 %35, %38
  br i1 %.not, label %40, label %39

39:                                               ; preds = %If_CluMoveGroupToMsb.exit
  %puts = tail call i32 @puts(ptr nonnull dereferenceable(1) @str.6)
  br label %40

40:                                               ; preds = %39, %If_CluMoveGroupToMsb.exit
  %41 = icmp sgt i32 %35, 2
  br i1 %41, label %42, label %55

42:                                               ; preds = %40
  %43 = add nsw i32 %1, -1
  %44 = load i8, ptr %2, align 1, !tbaa !110
  %45 = sext i8 %44 to i32
  %46 = add nsw i32 %45, -1
  %47 = call i32 @If_CluCountCofs(ptr noundef nonnull %4, i32 noundef %43, i32 noundef %46, i32 noundef 0, ptr noundef null)
  %48 = icmp sgt i32 %47, 2
  br i1 %48, label %49, label %50

49:                                               ; preds = %42
  %puts22 = tail call i32 @puts(ptr nonnull dereferenceable(1) @str.7)
  %.pre = load i8, ptr %2, align 1, !tbaa !110
  %.pre27 = sext i8 %.pre to i32
  %.pre28 = add nsw i32 %.pre27, -1
  br label %50

50:                                               ; preds = %49, %42
  %.pre-phi29 = phi i32 [ %.pre28, %49 ], [ %46, %42 ]
  %51 = shl nuw i32 1, %43
  %52 = call i32 @If_CluCountCofs(ptr noundef nonnull %4, i32 noundef %43, i32 noundef %.pre-phi29, i32 noundef %51, ptr noundef null)
  %53 = icmp sgt i32 %52, 2
  br i1 %53, label %54, label %55

54:                                               ; preds = %50
  %puts23 = tail call i32 @puts(ptr nonnull dereferenceable(1) @str.8)
  br label %55

55:                                               ; preds = %50, %54, %40
  call void @llvm.lifetime.end.p0(i64 64, ptr nonnull %6) #22
  call void @llvm.lifetime.end.p0(i64 64, ptr nonnull %5) #22
  call void @llvm.lifetime.end.p0(i64 8192, ptr nonnull %4) #22
  ret void
}